; Function Attrs: mustprogress nofree norecurse nounwind willreturn uwtable
define void @_ZNK4cvc56parser18DeclareHeapCommand11getDataSortEv(ptr dead_on_unwind noalias writable writeonly sret(%"class.cvc5::Sort") align 8 captures(none) initializes((0, 24)) %0, ptr noundef nonnull readonly align 8 captures(none) dereferenceable(64) %1) local_unnamed_addr #17 align 2 personality ptr @__gxx_personality_v0 {
  %3 = getelementptr inbounds nuw i8, ptr %1, i64 40
  %4 = load ptr, ptr %3, align 8, !tbaa !123
  store ptr %4, ptr %0, align 8, !tbaa !123
  %5 = getelementptr inbounds nuw i8, ptr %0, i64 8
  %6 = getelementptr inbounds nuw i8, ptr %1, i64 48
  %7 = load ptr, ptr %6, align 8, !tbaa !128
  store ptr %7, ptr %5, align 8, !tbaa !128
  %8 = getelementptr inbounds nuw i8, ptr %0, i64 16
  %9 = getelementptr inbounds nuw i8, ptr %1, i64 56
  %10 = load ptr, ptr %9, align 8, !tbaa !25
  store ptr %10, ptr %8, align 8, !tbaa !25
  %.not.i.i.i.i = icmp eq ptr %10, null
  br i1 %.not.i.i.i.i, label %_ZN4cvc54SortC2ERKS0_.exit, label %11

11:                                               ; preds = %2
  %12 = getelementptr inbounds nuw i8, ptr %10, i64 8
  %13 = load i8, ptr @__libc_single_threaded, align 1, !tbaa !3
  %.not.i.i.i.i.i = icmp eq i8 %13, 0
  br i1 %.not.i.i.i.i.i, label %17, label %14

14:                                               ; preds = %11
  %15 = load i32, ptr %12, align 4, !tbaa !31
  %16 = add nsw i32 %15, 1
  store i32 %16, ptr %12, align 4, !tbaa !31
  br label %_ZN4cvc54SortC2ERKS0_.exit

17:                                               ; preds = %11
  %18 = atomicrmw volatile add ptr %12, i32 1 acq_rel, align 4
  br label %_ZN4cvc54SortC2ERKS0_.exit

_ZN4cvc54SortC2ERKS0_.exit:                       ; preds = %2, %14, %17
  ret void
}